
/mnt/d/prj/routine/daily/UART/c_package/ux607_c/Verilog/uart_init/uart_init:     file format elf64-littleriscv


Disassembly of section .text:

0000000080000000 <UART_Init>:
  *         that contains the configuration information for the specified UART 
  *         peripheral.
  * @retval None
  **/
void UART_Init(UART_TypeDef* UARTx, UART_InitTypeDef* UART_InitStruct)
{
    80000000:	7179                	addi	sp,sp,-48
    80000002:	f422                	sd	s0,40(sp)
    80000004:	1800                	addi	s0,sp,48
    80000006:	fca43c23          	sd	a0,-40(s0)
    8000000a:	fcb43823          	sd	a1,-48(s0)
	uint32_t tmpreg = 0x00, sysclock = 0x00;
    8000000e:	fe042623          	sw	zero,-20(s0)
    80000012:	fe042423          	sw	zero,-24(s0)
	uint32_t integerdivider = 0x00;
    80000016:	fe042223          	sw	zero,-28(s0)

/**---------------------------- UART CR Configuration -----------------------**/
	/**tmpreg = UART->CR; **/
	tmpreg = (uint32_t)UART_InitStruct->UART_Status | UART_InitStruct->UART_Br_Gen 
    8000001a:	fd043783          	ld	a5,-48(s0)			//TODO
    8000001e:	4798                	lw	a4,8(a5)
    80000020:	fd043783          	ld	a5,-48(s0)
    80000024:	47dc                	lw	a5,12(a5)
    80000026:	8fd9                	or	a5,a5,a4
    80000028:	0007871b          	sext.w	a4,a5
				| UART_InitStruct->UART_Mode | UART_InitStruct->UART_Parity;
    8000002c:	fd043783          	ld	a5,-48(s0)
    80000030:	4b9c                	lw	a5,16(a5)
    80000032:	8fd9                	or	a5,a5,a4
    80000034:	0007871b          	sext.w	a4,a5
    80000038:	fd043783          	ld	a5,-48(s0)
    8000003c:	43dc                	lw	a5,4(a5)
	tmpreg = (uint32_t)UART_InitStruct->UART_Status | UART_InitStruct->UART_Br_Gen 
    8000003e:	8fd9                	or	a5,a5,a4
    80000040:	fef42623          	sw	a5,-20(s0)
	/** Write to UART CR **/
	UARTx->CR = tmpreg;
    80000044:	fd843783          	ld	a5,-40(s0)
    80000048:	fec42703          	lw	a4,-20(s0)
    8000004c:	c3d8                	sw	a4,4(a5)

/**---------------------------- UART CSR Configuration -----------------------**/
    sysclock = FREQ_SYS;
    8000004e:	00f427b7          	lui	a5,0xf42
    80000052:	4007879b          	addiw	a5,a5,1024
    80000056:	fef42423          	sw	a5,-24(s0)
	
	/** Determine the integer part **/
    /** Integer part computing in case Oversampling mode is 16 Samples **/
    integerdivider = (sysclock / (16 * (UART_InitStruct->UART_BaudRate))) - 1;    
    8000005a:	fd043783          	ld	a5,-48(s0)
    8000005e:	439c                	lw	a5,0(a5)
    80000060:	0047979b          	slliw	a5,a5,0x4
    80000064:	2781                	sext.w	a5,a5
    80000066:	fe842703          	lw	a4,-24(s0)
    8000006a:	02f757bb          	divuw	a5,a4,a5
    8000006e:	2781                	sext.w	a5,a5
    80000070:	37fd                	addiw	a5,a5,-1
    80000072:	fef42223          	sw	a5,-28(s0)
	
	/** Write to UART CSR **/
	UARTx->CSR = (uint32_t)integerdivider << 16;
    80000076:	fe442783          	lw	a5,-28(s0)
    8000007a:	0107979b          	slliw	a5,a5,0x10
    8000007e:	0007871b          	sext.w	a4,a5
    80000082:	fd843783          	ld	a5,-40(s0)
    80000086:	c398                	sw	a4,0(a5)
}
    80000088:	0001                	nop
    8000008a:	7422                	ld	s0,40(sp)
    8000008c:	6145                	addi	sp,sp,48
    8000008e:	8082                	ret

0000000080000090 <UART_StructInit>:
  * @param  UART_InitStruct: pointer to a UART_InitTypeDef structure
  *         which will be initialized.
  * @retval None
  **/
void UART_StructInit(UART_InitTypeDef* UART_InitStruct)
{
    80000090:	1101                	addi	sp,sp,-32
    80000092:	ec22                	sd	s0,24(sp)
    80000094:	1000                	addi	s0,sp,32
    80000096:	fea43423          	sd	a0,-24(s0)
	/** UART_InitStruct members default value **/
	UART_InitStruct->UART_BaudRate		= 115200;
    8000009a:	fe843783          	ld	a5,-24(s0)
    8000009e:	6771                	lui	a4,0x1c
    800000a0:	2007071b          	addiw	a4,a4,512
    800000a4:	c398                	sw	a4,0(a5)
	UART_InitStruct->UART_Parity		= UART_Even_Parity;
    800000a6:	fe843783          	ld	a5,-24(s0)
    800000aa:	6741                	lui	a4,0x10
    800000ac:	c3d8                	sw	a4,4(a5)
	UART_InitStruct->UART_Status		= UART_Enable;
    800000ae:	fe843783          	ld	a5,-24(s0)
    800000b2:	20000713          	li	a4,512
    800000b6:	c798                	sw	a4,8(a5)
	UART_InitStruct->UART_Br_Gen		= UART_Br_Enable;
    800000b8:	fe843783          	ld	a5,-24(s0)
    800000bc:	4705                	li	a4,1
    800000be:	c7d8                	sw	a4,12(a5)
	UART_InitStruct->UART_Mode			= UART_Mode_Rx | UART_Mode_Tx;
    800000c0:	fe843783          	ld	a5,-24(s0)
    800000c4:	11000713          	li	a4,272
    800000c8:	cb98                	sw	a4,16(a5)
}
    800000ca:	0001                	nop
    800000cc:	6462                	ld	s0,24(sp)
    800000ce:	6105                	addi	sp,sp,32
    800000d0:	8082                	ret

00000000800000d2 <UART_Cmd>:
  * @param  NewState: new state of the UART peripheral.
  *         This parameter can be: ENABLE or DISABLE.
  * @retval None
  **/
void UART_Cmd(UART_TypeDef* UARTx, FunctionalState NewState)
{
    800000d2:	1101                	addi	sp,sp,-32
    800000d4:	ec22                	sd	s0,24(sp)
    800000d6:	1000                	addi	s0,sp,32
    800000d8:	fea43423          	sd	a0,-24(s0)
    800000dc:	87ae                	mv	a5,a1
    800000de:	fef42223          	sw	a5,-28(s0)
  if (NewState != DISABLE)
    800000e2:	fe442783          	lw	a5,-28(s0)
    800000e6:	2781                	sext.w	a5,a5
    800000e8:	cf89                	beqz	a5,80000102 <UART_Cmd+0x30>
  {
    /** Enable the selected UARTx by setting the UE bit in the CR register **/
    UARTx->CR |= UART_Enable;
    800000ea:	fe843783          	ld	a5,-24(s0)
    800000ee:	43dc                	lw	a5,4(a5)
    800000f0:	2781                	sext.w	a5,a5
    800000f2:	2007e793          	ori	a5,a5,512
    800000f6:	0007871b          	sext.w	a4,a5
    800000fa:	fe843783          	ld	a5,-24(s0)
    800000fe:	c3d8                	sw	a4,4(a5)
  else
  {
    /** Disable the selected UART by clearing the UE bit in the CR register **/
    UARTx->CR &= UART_Disable;
  }
}
    80000100:	a801                	j	80000110 <UART_Cmd+0x3e>
    UARTx->CR &= UART_Disable;
    80000102:	fe843783          	ld	a5,-24(s0)
    80000106:	43dc                	lw	a5,4(a5)
    80000108:	fe843783          	ld	a5,-24(s0)
    8000010c:	0007a223          	sw	zero,4(a5) # f42004 <__stack_size+0xf41804>
}
    80000110:	0001                	nop
    80000112:	6462                	ld	s0,24(sp)
    80000114:	6105                	addi	sp,sp,32
    80000116:	8082                	ret

0000000080000118 <UART_GetFlagStatus>:
  *     @arg USART_FLAG_RX_OK: 	Receive data is ok
  *     @arg USART_FLAG_TX_OK:  Transmit data is ok
  * @retval The new state of USART_FLAG (SET or RESET).
  **/
FlagStatus UART_GetFlagStatus(UART_TypeDef* UARTx, uint32_t UART_FLAG)
{
    80000118:	7179                	addi	sp,sp,-48
    8000011a:	f422                	sd	s0,40(sp)
    8000011c:	1800                	addi	s0,sp,48
    8000011e:	fca43c23          	sd	a0,-40(s0)
    80000122:	87ae                	mv	a5,a1
    80000124:	fcf42a23          	sw	a5,-44(s0)
  FlagStatus bitstatus = RESET;
    80000128:	fe042623          	sw	zero,-20(s0)

  if ((UARTx->CSR & UART_FLAG) != (uint32_t)RESET)
    8000012c:	fd843783          	ld	a5,-40(s0)
    80000130:	439c                	lw	a5,0(a5)
    80000132:	0007871b          	sext.w	a4,a5
    80000136:	fd442783          	lw	a5,-44(s0)
    8000013a:	8ff9                	and	a5,a5,a4
    8000013c:	2781                	sext.w	a5,a5
    8000013e:	c789                	beqz	a5,80000148 <UART_GetFlagStatus+0x30>
  {
    bitstatus = SET;
    80000140:	4785                	li	a5,1
    80000142:	fef42623          	sw	a5,-20(s0)
    80000146:	a019                	j	8000014c <UART_GetFlagStatus+0x34>
  }
  else
  {
    bitstatus = RESET;
    80000148:	fe042623          	sw	zero,-20(s0)
  }
  return bitstatus;
    8000014c:	fec42783          	lw	a5,-20(s0)
}
    80000150:	853e                	mv	a0,a5
    80000152:	7422                	ld	s0,40(sp)
    80000154:	6145                	addi	sp,sp,48
    80000156:	8082                	ret

0000000080000158 <UART_SendData>:
  * @param  UART: Select the UART peripheral. 
  * @param  Data: the data to transmit.
  * @retval None
  **/
void UART_SendData(UART_TypeDef* UARTx, uint8_t Data)
{
    80000158:	1101                	addi	sp,sp,-32
    8000015a:	ec22                	sd	s0,24(sp)
    8000015c:	1000                	addi	s0,sp,32
    8000015e:	fea43423          	sd	a0,-24(s0)
    80000162:	87ae                	mv	a5,a1
    80000164:	fef403a3          	sb	a5,-25(s0)
  /** Transmit Data **/
  UARTx->DR = Data ;
    80000168:	fe744783          	lbu	a5,-25(s0)
    8000016c:	0007871b          	sext.w	a4,a5
    80000170:	fe843783          	ld	a5,-24(s0)
    80000174:	c798                	sw	a4,8(a5)
}
    80000176:	0001                	nop
    80000178:	6462                	ld	s0,24(sp)
    8000017a:	6105                	addi	sp,sp,32
    8000017c:	8082                	ret

000000008000017e <UART_ReceiveData>:
  * @brief  Returns the most recent received data by the UART peripheral.
  * @param  UARTx: Select the UART peripheral. 
  * @retval The received data.
  **/
uint8_t UART_ReceiveData(UART_TypeDef* UARTx)
{
    8000017e:	1101                	addi	sp,sp,-32
    80000180:	ec22                	sd	s0,24(sp)
    80000182:	1000                	addi	s0,sp,32
    80000184:	fea43423          	sd	a0,-24(s0)
  /** Receive Data **/
  return (uint8_t)(UARTx->DR);
    80000188:	fe843783          	ld	a5,-24(s0)
    8000018c:	479c                	lw	a5,8(a5)
    8000018e:	2781                	sext.w	a5,a5
    80000190:	0ff7f793          	andi	a5,a5,255
}
    80000194:	853e                	mv	a0,a5
    80000196:	6462                	ld	s0,24(sp)
    80000198:	6105                	addi	sp,sp,32
    8000019a:	8082                	ret

000000008000019c <main>:
  * @brief  Main program
  * @param  None
  * @retval None
  */
int main(void)
{ 
    8000019c:	1141                	addi	sp,sp,-16
    8000019e:	e406                	sd	ra,8(sp)
    800001a0:	e022                	sd	s0,0(sp)
    800001a2:	0800                	addi	s0,sp,16
	UART_StructInit(&UART_InitStructure);
    800001a4:	00001517          	auipc	a0,0x1
    800001a8:	e5c50513          	addi	a0,a0,-420 # 80001000 <UART_InitStructure>
    800001ac:	ee5ff0ef          	jal	ra,80000090 <UART_StructInit>
	
	/** Configure UART **/
	UART_Init(UART, &UART_InitStructure);
    800001b0:	00001597          	auipc	a1,0x1
    800001b4:	e5058593          	addi	a1,a1,-432 # 80001000 <UART_InitStructure>
    800001b8:	10013537          	lui	a0,0x10013
    800001bc:	e45ff0ef          	jal	ra,80000000 <UART_Init>
	
	while (1)
    800001c0:	a001                	j	800001c0 <main+0x24>
